target datalayout = "e-m:e-p270:32:32-p271:32:32-p272:64:64-i64:64-i128:128-f80:128-n8:16:32:64-S128"
target triple = "x86_64-pc-linux-gnu"

%"struct.faiss::PermutationObjective" = type <{ ptr, i32, [4 x i8] }>
%"struct.faiss::PermutationObjective.base" = type <{ ptr, i32 }>
%"class.std::vector.3" = type { %"struct.std::_Vector_base.4" }
%"struct.std::_Vector_base.4" = type { %"struct.std::_Vector_base<double, std::allocator<double>>::_Vector_impl" }
%"struct.std::_Vector_base<double, std::allocator<double>>::_Vector_impl" = type { %"struct.std::_Vector_base<double, std::allocator<double>>::_Vector_impl_data" }
%"struct.std::_Vector_base<double, std::allocator<double>>::_Vector_impl_data" = type { ptr, ptr, ptr }
%"struct.faiss::(anonymous namespace)::ReproduceWithHammingObjective" = type { %"struct.faiss::PermutationObjective.base", i32, double, %"class.std::vector.3", %"class.std::vector.3" }

; Function Attrs: mustprogress nounwind uwtable
define internal noundef double @_ZN5faiss12_GLOBAL__N_129ReproduceWithHammingObjective3sqrEd(double noundef %0) #1 align 2 {
  %2 = alloca double, align 8
  store double %0, ptr %2, align 8, !tbaa !15
  %3 = load double, ptr %2, align 8, !tbaa !15
  %4 = load double, ptr %2, align 8, !tbaa !15
  %5 = fmul double %3, %4
  ret double %5
}

; Function Attrs: inlinehint mustprogress nounwind uwtable
define internal noundef i32 @_ZN5faissL11hamming_disEmm(i64 noundef %0, i64 noundef %1) #4 {
  %3 = alloca i64, align 8
  %4 = alloca i64, align 8
  store i64 %0, ptr %3, align 8, !tbaa !41
  store i64 %1, ptr %4, align 8, !tbaa !41
  %5 = load i64, ptr %3, align 8, !tbaa !41
  %6 = load i64, ptr %4, align 8, !tbaa !41
  %7 = xor i64 %5, %6
  %8 = call i64 @llvm.ctpop.i64(i64 %7)
  %9 = trunc i64 %8 to i32
  ret i32 %9
}

; Function Attrs: mustprogress nounwind uwtable
define linkonce_odr noundef nonnull align 8 dereferenceable(8) ptr @_ZNKSt6vectorIdSaIdEEixEm(ptr noundef nonnull align 8 dereferenceable(24) %0, i64 noundef %1) #1 comdat align 2 {
  %3 = alloca ptr, align 8
  %4 = alloca i64, align 8
  store ptr %0, ptr %3, align 8, !tbaa !112
  store i64 %1, ptr %4, align 8, !tbaa !41
  %5 = load ptr, ptr %3, align 8
  %6 = getelementptr inbounds nuw %"struct.std::_Vector_base.4", ptr %5, i32 0, i32 0
  %7 = getelementptr inbounds nuw %"struct.std::_Vector_base<double, std::allocator<double>>::_Vector_impl_data", ptr %6, i32 0, i32 0
  %8 = load ptr, ptr %7, align 8, !tbaa !114
  %9 = load i64, ptr %4, align 8, !tbaa !41
  %10 = getelementptr inbounds nuw double, ptr %8, i64 %9
  ret ptr %10
}

; Function Attrs: mustprogress uwtable
define internal noundef double @_ZNK5faiss12_GLOBAL__N_129ReproduceWithHammingObjective12compute_costEPKi(ptr noundef nonnull align 8 dereferenceable(72) %0, ptr noundef %1) unnamed_addr #0 align 2 {
  %3 = alloca ptr, align 8
  %4 = alloca ptr, align 8
  %5 = alloca double, align 8
  %6 = alloca i32, align 4
  %7 = alloca i32, align 4
  %8 = alloca i32, align 4
  %9 = alloca double, align 8
  %10 = alloca double, align 8
  %11 = alloca double, align 8
  store ptr %0, ptr %3, align 8, !tbaa !162
  store ptr %1, ptr %4, align 8, !tbaa !9
  %12 = load ptr, ptr %3, align 8
  call void @llvm.lifetime.start.p0(i64 8, ptr %5) #16
  store double 0.000000e+00, ptr %5, align 8, !tbaa !15
  call void @llvm.lifetime.start.p0(i64 4, ptr %6) #16
  store i32 0, ptr %6, align 4, !tbaa !11
  br label %13

13:                                               ; preds = %72, %2
  %14 = load i32, ptr %6, align 4, !tbaa !11
  %15 = getelementptr inbounds nuw %"struct.faiss::PermutationObjective", ptr %12, i32 0, i32 1
  %16 = load i32, ptr %15, align 8, !tbaa !17
  %17 = icmp slt i32 %14, %16
  br i1 %17, label %19, label %18

18:                                               ; preds = %13
  store i32 2, ptr %7, align 4
  call void @llvm.lifetime.end.p0(i64 4, ptr %6) #16
  br label %75

19:                                               ; preds = %13
  call void @llvm.lifetime.start.p0(i64 4, ptr %8) #16
  store i32 0, ptr %8, align 4, !tbaa !11
  br label %20

20:                                               ; preds = %68, %19
  %21 = load i32, ptr %8, align 4, !tbaa !11
  %22 = getelementptr inbounds nuw %"struct.faiss::PermutationObjective", ptr %12, i32 0, i32 1
  %23 = load i32, ptr %22, align 8, !tbaa !17
  %24 = icmp slt i32 %21, %23
  br i1 %24, label %26, label %25

25:                                               ; preds = %20
  store i32 5, ptr %7, align 4
  call void @llvm.lifetime.end.p0(i64 4, ptr %8) #16
  br label %71

26:                                               ; preds = %20
  call void @llvm.lifetime.start.p0(i64 8, ptr %9) #16
  %27 = getelementptr inbounds nuw %"struct.faiss::(anonymous namespace)::ReproduceWithHammingObjective", ptr %12, i32 0, i32 3
  %28 = load i32, ptr %6, align 4, !tbaa !11
  %29 = getelementptr inbounds nuw %"struct.faiss::PermutationObjective", ptr %12, i32 0, i32 1
  %30 = load i32, ptr %29, align 8, !tbaa !17
  %31 = mul nsw i32 %28, %30
  %32 = load i32, ptr %8, align 4, !tbaa !11
  %33 = add nsw i32 %31, %32
  %34 = sext i32 %33 to i64
  %35 = call noundef nonnull align 8 dereferenceable(8) ptr @_ZNKSt6vectorIdSaIdEEixEm(ptr noundef nonnull align 8 dereferenceable(24) %27, i64 noundef %34) #16
  %36 = load double, ptr %35, align 8, !tbaa !15
  store double %36, ptr %9, align 8, !tbaa !15
  call void @llvm.lifetime.start.p0(i64 8, ptr %10) #16
  %37 = getelementptr inbounds nuw %"struct.faiss::(anonymous namespace)::ReproduceWithHammingObjective", ptr %12, i32 0, i32 4
  %38 = load i32, ptr %6, align 4, !tbaa !11
  %39 = getelementptr inbounds nuw %"struct.faiss::PermutationObjective", ptr %12, i32 0, i32 1
  %40 = load i32, ptr %39, align 8, !tbaa !17
  %41 = mul nsw i32 %38, %40
  %42 = load i32, ptr %8, align 4, !tbaa !11
  %43 = add nsw i32 %41, %42
  %44 = sext i32 %43 to i64
  %45 = call noundef nonnull align 8 dereferenceable(8) ptr @_ZNKSt6vectorIdSaIdEEixEm(ptr noundef nonnull align 8 dereferenceable(24) %37, i64 noundef %44) #16
  %46 = load double, ptr %45, align 8, !tbaa !15
  store double %46, ptr %10, align 8, !tbaa !15
  call void @llvm.lifetime.start.p0(i64 8, ptr %11) #16
  %47 = load ptr, ptr %4, align 8, !tbaa !9
  %48 = load i32, ptr %6, align 4, !tbaa !11
  %49 = sext i32 %48 to i64
  %50 = getelementptr inbounds i32, ptr %47, i64 %49
  %51 = load i32, ptr %50, align 4, !tbaa !11
  %52 = sext i32 %51 to i64
  %53 = load ptr, ptr %4, align 8, !tbaa !9
  %54 = load i32, ptr %8, align 4, !tbaa !11
  %55 = sext i32 %54 to i64
  %56 = getelementptr inbounds i32, ptr %53, i64 %55
  %57 = load i32, ptr %56, align 4, !tbaa !11
  %58 = sext i32 %57 to i64
  %59 = call noundef i32 @_ZN5faissL11hamming_disEmm(i64 noundef %52, i64 noundef %58)
  %60 = sitofp i32 %59 to double
  store double %60, ptr %11, align 8, !tbaa !15
  %61 = load double, ptr %10, align 8, !tbaa !15
  %62 = load double, ptr %9, align 8, !tbaa !15
  %63 = load double, ptr %11, align 8, !tbaa !15
  %64 = fsub double %62, %63
  %65 = call noundef double @_ZN5faiss12_GLOBAL__N_129ReproduceWithHammingObjective3sqrEd(double noundef %64)
  %66 = load double, ptr %5, align 8, !tbaa !15
  %67 = call double @llvm.fmuladd.f64(double %61, double %65, double %66)
  store double %67, ptr %5, align 8, !tbaa !15
  call void @llvm.lifetime.end.p0(i64 8, ptr %11) #16
  call void @llvm.lifetime.end.p0(i64 8, ptr %10) #16
  call void @llvm.lifetime.end.p0(i64 8, ptr %9) #16
  br label %68

68:                                               ; preds = %26
  %69 = load i32, ptr %8, align 4, !tbaa !11
  %70 = add nsw i32 %69, 1
  store i32 %70, ptr %8, align 4, !tbaa !11
  br label %20, !llvm.loop !180

71:                                               ; preds = %25
  br label %72

72:                                               ; preds = %71
  %73 = load i32, ptr %6, align 4, !tbaa !11
  %74 = add nsw i32 %73, 1
  store i32 %74, ptr %6, align 4, !tbaa !11
  br label %13, !llvm.loop !181

75:                                               ; preds = %18
  %76 = load double, ptr %5, align 8, !tbaa !15
  store i32 1, ptr %7, align 4
  call void @llvm.lifetime.end.p0(i64 8, ptr %5) #16
  ret double %76
}