; Function Attrs: mustprogress nofree norecurse nosync nounwind willreturn memory(read, inaccessiblemem: none) uwtable
define internal noundef double @_ZNK5faiss12_GLOBAL__N_129ReproduceWithHammingObjective12compute_costEPKi(ptr noundef nonnull readonly align 8 captures(none) dereferenceable(72) %0, ptr noundef readonly captures(none) %1) unnamed_addr #2 align 2 {
  %3 = getelementptr inbounds nuw i8, ptr %0, i64 8
  %4 = load i32, ptr %3, align 8, !tbaa !7
  %5 = icmp sgt i32 %4, 0
  br i1 %5, label %.preheader.lr.ph, label %._crit_edge24

.preheader.lr.ph:                                 ; preds = %2
  %6 = getelementptr inbounds nuw i8, ptr %0, i64 24
  %7 = load ptr, ptr %6, align 8
  %8 = getelementptr inbounds nuw i8, ptr %0, i64 48
  %9 = load ptr, ptr %8, align 8
  %10 = zext nneg i32 %4 to i64
  br label %.preheader.us

.preheader.us:                                    ; preds = %._crit_edge.us, %.preheader.lr.ph
  %indvars.iv27 = phi i64 [ %indvars.iv.next28, %._crit_edge.us ], [ 0, %.preheader.lr.ph ]
  %.023.us = phi double [ %29, %._crit_edge.us ], [ 0.000000e+00, %.preheader.lr.ph ]
  %11 = mul nuw nsw i64 %indvars.iv27, %10
  %12 = getelementptr inbounds nuw i32, ptr %1, i64 %indvars.iv27
  %13 = load i32, ptr %12, align 4, !tbaa !11
  br label %14

14:                                               ; preds = %.preheader.us, %14
  %indvars.iv = phi i64 [ 0, %.preheader.us ], [ %indvars.iv.next, %14 ]
  %.121.us = phi double [ %.023.us, %.preheader.us ], [ %29, %14 ]
  %15 = add nuw nsw i64 %indvars.iv, %11
  %16 = getelementptr inbounds nuw double, ptr %7, i64 %15
  %17 = load double, ptr %16, align 8, !tbaa !12
  %18 = getelementptr inbounds nuw double, ptr %9, i64 %15
  %19 = load double, ptr %18, align 8, !tbaa !12
  %20 = getelementptr inbounds nuw i32, ptr %1, i64 %indvars.iv
  %21 = load i32, ptr %20, align 4, !tbaa !11
  %22 = xor i32 %21, %13
  %23 = sext i32 %22 to i64
  %24 = tail call range(i64 0, 65) i64 @llvm.ctpop.i64(i64 %23)
  %25 = trunc nuw nsw i64 %24 to i32
  %26 = uitofp nneg i32 %25 to double
  %27 = fsub double %17, %26
  %28 = fmul double %27, %27
  %29 = tail call double @llvm.fmuladd.f64(double %19, double %28, double %.121.us)
  %indvars.iv.next = add nuw nsw i64 %indvars.iv, 1
  %exitcond.not = icmp eq i64 %indvars.iv.next, %10
  br i1 %exitcond.not, label %._crit_edge.us, label %14, !llvm.loop !106

._crit_edge.us:                                   ; preds = %14
  %indvars.iv.next28 = add nuw nsw i64 %indvars.iv27, 1
  %exitcond31.not = icmp eq i64 %indvars.iv.next28, %10
  br i1 %exitcond31.not, label %._crit_edge24, label %.preheader.us, !llvm.loop !107

._crit_edge24:                                    ; preds = %._crit_edge.us, %2
  %.0.lcssa = phi double [ 0.000000e+00, %2 ], [ %29, %._crit_edge.us ]
  ret double %.0.lcssa
}